target datalayout = "e-m:e-p270:32:32-p271:32:32-p272:64:64-i64:64-i128:128-f80:128-n8:16:32:64-S128"
target triple = "x86_64-pc-linux-gnu"

; Function Attrs: nounwind uwtable
define internal void @pal8ToPlanar8(ptr noundef %0, ptr noundef %1, ptr noundef %2, ptr noundef %3, ptr noundef %4, i32 noundef %5, ptr noundef %6) #0 {
  %8 = alloca ptr, align 8
  %9 = alloca ptr, align 8
  %10 = alloca ptr, align 8
  %11 = alloca ptr, align 8
  %12 = alloca ptr, align 8
  %13 = alloca i32, align 4
  %14 = alloca ptr, align 8
  %15 = alloca i32, align 4
  %16 = alloca ptr, align 8
  store ptr %0, ptr %8, align 8, !tbaa !4
  store ptr %1, ptr %9, align 8, !tbaa !4
  store ptr %2, ptr %10, align 8, !tbaa !4
  store ptr %3, ptr %11, align 8, !tbaa !4
  store ptr %4, ptr %12, align 8, !tbaa !4
  store i32 %5, ptr %13, align 4, !tbaa !9
  store ptr %6, ptr %14, align 8, !tbaa !4
  call void @llvm.lifetime.start.p0(i64 4, ptr %15) #11
  store i32 0, ptr %15, align 4, !tbaa !9
  br label %17

17:                                               ; preds = %65, %7
  %18 = load i32, ptr %15, align 4, !tbaa !9
  %19 = load i32, ptr %13, align 4, !tbaa !9
  %20 = icmp slt i32 %18, %19
  br i1 %20, label %22, label %21

21:                                               ; preds = %17
  call void @llvm.lifetime.end.p0(i64 4, ptr %15) #11
  br label %68

22:                                               ; preds = %17
  call void @llvm.lifetime.start.p0(i64 8, ptr %16) #11
  %23 = load ptr, ptr %14, align 8, !tbaa !4
  %24 = load ptr, ptr %8, align 8, !tbaa !4
  %25 = load i32, ptr %15, align 4, !tbaa !9
  %26 = sext i32 %25 to i64
  %27 = getelementptr inbounds i8, ptr %24, i64 %26
  %28 = load i8, ptr %27, align 1, !tbaa !67
  %29 = zext i8 %28 to i32
  %30 = mul nsw i32 %29, 4
  %31 = sext i32 %30 to i64
  %32 = getelementptr inbounds i8, ptr %23, i64 %31
  store ptr %32, ptr %16, align 8, !tbaa !4
  %33 = load ptr, ptr %16, align 8, !tbaa !4
  %34 = getelementptr inbounds i8, ptr %33, i64 0
  %35 = load i8, ptr %34, align 1, !tbaa !67
  %36 = load ptr, ptr %9, align 8, !tbaa !4
  %37 = load i32, ptr %15, align 4, !tbaa !9
  %38 = sext i32 %37 to i64
  %39 = getelementptr inbounds i8, ptr %36, i64 %38
  store i8 %35, ptr %39, align 1, !tbaa !67
  %40 = load ptr, ptr %16, align 8, !tbaa !4
  %41 = getelementptr inbounds i8, ptr %40, i64 1
  %42 = load i8, ptr %41, align 1, !tbaa !67
  %43 = load ptr, ptr %10, align 8, !tbaa !4
  %44 = load i32, ptr %15, align 4, !tbaa !9
  %45 = sext i32 %44 to i64
  %46 = getelementptr inbounds i8, ptr %43, i64 %45
  store i8 %42, ptr %46, align 1, !tbaa !67
  %47 = load ptr, ptr %16, align 8, !tbaa !4
  %48 = getelementptr inbounds i8, ptr %47, i64 2
  %49 = load i8, ptr %48, align 1, !tbaa !67
  %50 = load ptr, ptr %11, align 8, !tbaa !4
  %51 = load i32, ptr %15, align 4, !tbaa !9
  %52 = sext i32 %51 to i64
  %53 = getelementptr inbounds i8, ptr %50, i64 %52
  store i8 %49, ptr %53, align 1, !tbaa !67
  %54 = load ptr, ptr %12, align 8, !tbaa !4
  %55 = icmp ne ptr %54, null
  br i1 %55, label %56, label %64

56:                                               ; preds = %22
  %57 = load ptr, ptr %16, align 8, !tbaa !4
  %58 = getelementptr inbounds i8, ptr %57, i64 3
  %59 = load i8, ptr %58, align 1, !tbaa !67
  %60 = load ptr, ptr %12, align 8, !tbaa !4
  %61 = load i32, ptr %15, align 4, !tbaa !9
  %62 = sext i32 %61 to i64
  %63 = getelementptr inbounds i8, ptr %60, i64 %62
  store i8 %59, ptr %63, align 1, !tbaa !67
  br label %64

64:                                               ; preds = %56, %22
  call void @llvm.lifetime.end.p0(i64 8, ptr %16) #11
  br label %65

65:                                               ; preds = %64
  %66 = load i32, ptr %15, align 4, !tbaa !9
  %67 = add nsw i32 %66, 1
  store i32 %67, ptr %15, align 4, !tbaa !9
  br label %17, !llvm.loop !317

68:                                               ; preds = %21
  ret void
}