; Function Attrs: nofree norecurse nosync nounwind memory(argmem: readwrite) uwtable
define internal void @pal8ToPlanar8(ptr noundef readonly captures(none) %0, ptr noundef writeonly captures(none) %1, ptr noundef writeonly captures(none) %2, ptr noundef writeonly captures(none) %3, ptr noundef writeonly captures(address_is_null) %4, i32 noundef %5, ptr noundef readonly captures(none) %6) unnamed_addr #0 {
  %8 = icmp sgt i32 %5, 0
  br i1 %8, label %.lr.ph, label %._crit_edge

.lr.ph:                                           ; preds = %7
  %.not = icmp eq ptr %4, null
  %wide.trip.count25 = zext nneg i32 %5 to i64
  br i1 %.not, label %.lr.ph.split.us, label %.lr.ph.split

.lr.ph.split.us:                                  ; preds = %.lr.ph, %.lr.ph.split.us
  %indvars.iv22 = phi i64 [ %indvars.iv.next23, %.lr.ph.split.us ], [ 0, %.lr.ph ]
  %9 = getelementptr inbounds nuw i8, ptr %0, i64 %indvars.iv22
  %10 = load i8, ptr %9, align 1, !tbaa !61
  %11 = zext i8 %10 to i64
  %12 = shl nuw nsw i64 %11, 2
  %13 = getelementptr inbounds nuw i8, ptr %6, i64 %12
  %14 = load i8, ptr %13, align 1, !tbaa !61
  %15 = getelementptr inbounds nuw i8, ptr %1, i64 %indvars.iv22
  store i8 %14, ptr %15, align 1, !tbaa !61
  %16 = getelementptr inbounds nuw i8, ptr %13, i64 1
  %17 = load i8, ptr %16, align 1, !tbaa !61
  %18 = getelementptr inbounds nuw i8, ptr %2, i64 %indvars.iv22
  store i8 %17, ptr %18, align 1, !tbaa !61
  %19 = getelementptr inbounds nuw i8, ptr %13, i64 2
  %20 = load i8, ptr %19, align 1, !tbaa !61
  %21 = getelementptr inbounds nuw i8, ptr %3, i64 %indvars.iv22
  store i8 %20, ptr %21, align 1, !tbaa !61
  %indvars.iv.next23 = add nuw nsw i64 %indvars.iv22, 1
  %exitcond26.not = icmp eq i64 %indvars.iv.next23, %wide.trip.count25
  br i1 %exitcond26.not, label %._crit_edge, label %.lr.ph.split.us, !llvm.loop !309

._crit_edge:                                      ; preds = %.lr.ph.split, %.lr.ph.split.us, %7
  ret void

.lr.ph.split:                                     ; preds = %.lr.ph, %.lr.ph.split
  %indvars.iv = phi i64 [ %indvars.iv.next, %.lr.ph.split ], [ 0, %.lr.ph ]
  %22 = getelementptr inbounds nuw i8, ptr %0, i64 %indvars.iv
  %23 = load i8, ptr %22, align 1, !tbaa !61
  %24 = zext i8 %23 to i64
  %25 = shl nuw nsw i64 %24, 2
  %26 = getelementptr inbounds nuw i8, ptr %6, i64 %25
  %27 = load i8, ptr %26, align 1, !tbaa !61
  %28 = getelementptr inbounds nuw i8, ptr %1, i64 %indvars.iv
  store i8 %27, ptr %28, align 1, !tbaa !61
  %29 = getelementptr inbounds nuw i8, ptr %26, i64 1
  %30 = load i8, ptr %29, align 1, !tbaa !61
  %31 = getelementptr inbounds nuw i8, ptr %2, i64 %indvars.iv
  store i8 %30, ptr %31, align 1, !tbaa !61
  %32 = getelementptr inbounds nuw i8, ptr %26, i64 2
  %33 = load i8, ptr %32, align 1, !tbaa !61
  %34 = getelementptr inbounds nuw i8, ptr %3, i64 %indvars.iv
  store i8 %33, ptr %34, align 1, !tbaa !61
  %35 = getelementptr inbounds nuw i8, ptr %26, i64 3
  %36 = load i8, ptr %35, align 1, !tbaa !61
  %37 = getelementptr inbounds nuw i8, ptr %4, i64 %indvars.iv
  store i8 %36, ptr %37, align 1, !tbaa !61
  %indvars.iv.next = add nuw nsw i64 %indvars.iv, 1
  %exitcond.not = icmp eq i64 %indvars.iv.next, %wide.trip.count25
  br i1 %exitcond.not, label %._crit_edge, label %.lr.ph.split, !llvm.loop !309
}